; Function Attrs: inlinehint mustprogress uwtable
define internal void @"_ZZ19lean_uv_tcp_connectEN3$_08__invokeEP12uv_connect_si"(ptr noundef captures(none) %0, i32 noundef %1) #10 align 2 {
  %3 = load ptr, ptr %0, align 8, !tbaa !48
  %4 = load ptr, ptr %3, align 8, !tbaa !45
  tail call void @_ZN4lean30lean_promise_resolve_with_codeEiP11lean_object(i32 noundef %1, ptr noundef %4)
  %5 = getelementptr inbounds nuw i8, ptr %3, i64 8
  %6 = load ptr, ptr %5, align 8, !tbaa !47
  %7 = ptrtoint ptr %6 to i64
  %8 = and i64 %7, 1
  %.not.i = icmp eq i64 %8, 0
  br i1 %.not.i, label %9, label %_ZL8lean_decP11lean_object.exit6.i

9:                                                ; preds = %2
  %10 = load i32, ptr %6, align 4, !tbaa !40
  %11 = icmp sgt i32 %10, 1
  br i1 %11, label %12, label %14, !prof !9

12:                                               ; preds = %9
  %13 = add nsw i32 %10, -1
  store i32 %13, ptr %6, align 4, !tbaa !40
  br label %_ZL8lean_decP11lean_object.exit6.i

14:                                               ; preds = %9
  %.not.i.i = icmp eq i32 %10, 0
  br i1 %.not.i.i, label %_ZL8lean_decP11lean_object.exit6.i, label %15

15:                                               ; preds = %14
  tail call void @lean_dec_ref_cold(ptr noundef nonnull %6)
  br label %_ZL8lean_decP11lean_object.exit6.i

_ZL8lean_decP11lean_object.exit6.i:               ; preds = %15, %14, %12, %2
  %16 = load ptr, ptr %3, align 8, !tbaa !45
  %17 = ptrtoint ptr %16 to i64
  %18 = and i64 %17, 1
  %.not1.i = icmp eq i64 %18, 0
  br i1 %.not1.i, label %19, label %"_ZZ19lean_uv_tcp_connectENK3$_0clEP12uv_connect_si.exit"

19:                                               ; preds = %_ZL8lean_decP11lean_object.exit6.i
  %20 = load i32, ptr %16, align 4, !tbaa !40
  %21 = icmp sgt i32 %20, 1
  br i1 %21, label %22, label %24, !prof !9

22:                                               ; preds = %19
  %23 = add nsw i32 %20, -1
  store i32 %23, ptr %16, align 4, !tbaa !40
  br label %"_ZZ19lean_uv_tcp_connectENK3$_0clEP12uv_connect_si.exit"

24:                                               ; preds = %19
  %.not.i7.i = icmp eq i32 %20, 0
  br i1 %.not.i7.i, label %"_ZZ19lean_uv_tcp_connectENK3$_0clEP12uv_connect_si.exit", label %25

25:                                               ; preds = %24
  tail call void @lean_dec_ref_cold(ptr noundef nonnull %16)
  br label %"_ZZ19lean_uv_tcp_connectENK3$_0clEP12uv_connect_si.exit"

"_ZZ19lean_uv_tcp_connectENK3$_0clEP12uv_connect_si.exit": ; preds = %_ZL8lean_decP11lean_object.exit6.i, %22, %24, %25
  %26 = load ptr, ptr %0, align 8, !tbaa !48
  tail call void @free(ptr noundef %26) #15
  tail call void @free(ptr noundef nonnull %0) #15
  ret void
}